target datalayout = "e-m:e-p270:32:32-p271:32:32-p272:64:64-i64:64-i128:128-f80:128-n8:16:32:64-S128"
target triple = "x86_64-pc-linux-gnu"

%struct.STable = type { i32, i32, i32, ptr }

; Function Attrs: nounwind uwtable
define dso_local void @stable_clear(ptr noundef %0) #0 {
  %2 = alloca ptr, align 8
  store ptr %0, ptr %2, align 8
  %3 = load ptr, ptr %2, align 8
  %4 = getelementptr inbounds %struct.STable, ptr %3, i32 0, i32 3
  %5 = load ptr, ptr %4, align 8
  %6 = load ptr, ptr %2, align 8
  %7 = getelementptr inbounds %struct.STable, ptr %6, i32 0, i32 1
  %8 = load i32, ptr %7, align 4
  %9 = zext i32 %8 to i64
  %10 = mul i64 %9, 24
  call void @llvm.memset.p0.i64(ptr align 8 %5, i8 0, i64 %10, i1 false)
  %11 = load ptr, ptr %2, align 8
  %12 = getelementptr inbounds %struct.STable, ptr %11, i32 0, i32 0
  store i32 0, ptr %12, align 8
  ret void
}