; Function Attrs: mustprogress nofree norecurse nosync nounwind willreturn memory(write, argmem: readwrite, inaccessiblemem: none) uwtable
define dso_local void @stable_clear(ptr nocapture noundef %0) local_unnamed_addr #8 {
  %2 = getelementptr inbounds i8, ptr %0, i64 16
  %3 = load ptr, ptr %2, align 8
  %4 = getelementptr inbounds i8, ptr %0, i64 4
  %5 = load i32, ptr %4, align 4
  %6 = zext i32 %5 to i64
  %7 = mul nuw nsw i64 %6, 24
  tail call void @llvm.memset.p0.i64(ptr align 8 %3, i8 0, i64 %7, i1 false)
  store i32 0, ptr %0, align 8
  ret void
}